target datalayout = "e-m:e-p270:32:32-p271:32:32-p272:64:64-i64:64-i128:128-f80:128-n8:16:32:64-S128"
target triple = "x86_64-unknown-linux-gnu"

%struct.BlockDriverState = type { i32, i8, i8, i8, i8, i8, ptr, ptr, ptr, %struct.anon, i8, [4096 x i8], [4096 x i8], [4096 x i8], [16 x i8], ptr, [4096 x i8], %struct.BlockLimits, i32, i32, i32, i32, [32 x i8], %union.anon, %union.anon.0, %union.anon.1, i32, [16 x %struct.anon.2], ptr, %struct.anon.3, ptr, ptr, %struct.anon.4, ptr, ptr, i32, ptr, i64, i64, %struct.QemuMutex, %struct.anon.5, %struct.Stat64, i32, i32, i32, i32, i32, i32, %struct.QemuMutex, %struct.anon.6, %struct.CoQueue, i8, i32, i8, %struct.CoMutex, ptr, ptr }
%struct.anon = type { ptr }
%struct.BlockLimits = type { i32, i64, i32, i64, i32, i32, i32, i64, i32, i64, i64, i32, i8, i32, i32, i32, i32, i32, i32, i32 }
%union.anon = type { %struct.QTailQLink }
%struct.QTailQLink = type { ptr, ptr }
%union.anon.0 = type { %struct.QTailQLink }
%union.anon.1 = type { %struct.QTailQLink }
%struct.anon.2 = type { ptr }
%struct.anon.3 = type { ptr }
%struct.anon.4 = type { ptr }
%struct.anon.5 = type { ptr }
%struct.Stat64 = type { i64 }
%struct.QemuMutex = type { %union.pthread_mutex_t, i8 }
%union.pthread_mutex_t = type { %struct.__pthread_mutex_s }
%struct.__pthread_mutex_s = type { i32, i32, i32, i32, i32, i16, i16, %struct.__pthread_internal_list }
%struct.__pthread_internal_list = type { ptr, ptr }
%struct.anon.6 = type { ptr }
%struct.CoQueue = type { %struct.anon.7 }
%struct.anon.7 = type { ptr, ptr }
%struct.CoMutex = type { i32, ptr, %struct.anon.8, %struct.anon.8, i32, i32, ptr }
%struct.anon.8 = type { ptr }
%struct.BDRVQcow2State = type { i32, i32, i32, i32, i32, i32, i32, i32, i32, i32, i32, i32, i32, i32, i64, i64, ptr, ptr, ptr, ptr, i32, %struct.anon.9, ptr, i64, i32, i32, i64, i64, %struct.CoMutex, %struct.Qcow2CryptoHeaderExtension, ptr, ptr, i8, i32, i64, i32, i32, ptr, i32, i64, i64, i32, i32, i8, i32, i32, i64, ptr, ptr, [5 x i8], i8, i32, i8, i64, i64, i64, i64, ptr, %struct.anon.10, %union.anon.11, i8, ptr, ptr, ptr, %struct.CoQueue, i32, ptr, i8, i8, i32 }
%struct.anon.9 = type { ptr }
%struct.Qcow2CryptoHeaderExtension = type { i64, i64 }
%struct.anon.10 = type { ptr }
%union.anon.11 = type { %struct.QTailQLink }

@.str.2 = private unnamed_addr constant [30 x i8] c"../qemu/block/qcow2-cluster.c\00", align 1
@.str.69 = private unnamed_addr constant [17 x i8] c"i <= nb_clusters\00", align 1
@__PRETTY_FUNCTION__.count_single_write_clusters = private unnamed_addr constant [81 x i8] c"int count_single_write_clusters(BlockDriverState *, int, uint64_t *, int, _Bool)\00", align 1

; Function Attrs: nounwind sspstrong uwtable
define internal zeroext i1 @has_data_file(ptr noundef %bs) #0 {
entry:
  %bs.addr = alloca ptr, align 8
  %s = alloca ptr, align 8
  store ptr %bs, ptr %bs.addr, align 8
  %0 = load ptr, ptr %bs.addr, align 8
  %opaque = getelementptr inbounds %struct.BlockDriverState, ptr %0, i32 0, i32 7
  %1 = load ptr, ptr %opaque, align 8
  store ptr %1, ptr %s, align 8
  %2 = load ptr, ptr %s, align 8
  %data_file = getelementptr inbounds %struct.BDRVQcow2State, ptr %2, i32 0, i32 66
  %3 = load ptr, ptr %data_file, align 8
  %4 = load ptr, ptr %bs.addr, align 8
  %file = getelementptr inbounds %struct.BlockDriverState, ptr %4, i32 0, i32 31
  %5 = load ptr, ptr %file, align 8
  %cmp = icmp ne ptr %3, %5
  ret i1 %cmp
}

; Function Attrs: nounwind sspstrong uwtable
define internal zeroext i1 @has_subclusters(ptr noundef %s) #0 {
entry:
  %s.addr = alloca ptr, align 8
  store ptr %s, ptr %s.addr, align 8
  %0 = load ptr, ptr %s.addr, align 8
  %incompatible_features = getelementptr inbounds %struct.BDRVQcow2State, ptr %0, i32 0, i32 53
  %1 = load i64, ptr %incompatible_features, align 8
  %and = and i64 %1, 16
  %tobool = icmp ne i64 %and, 0
  ret i1 %tobool
}

; Function Attrs: nounwind sspstrong uwtable
define internal i32 @qcow2_get_cluster_type(ptr noundef %bs, i64 noundef %l2_entry) #0 {
entry:
  %retval = alloca i32, align 4
  %bs.addr = alloca ptr, align 8
  %l2_entry.addr = alloca i64, align 8
  %s = alloca ptr, align 8
  store ptr %bs, ptr %bs.addr, align 8
  store i64 %l2_entry, ptr %l2_entry.addr, align 8
  %0 = load ptr, ptr %bs.addr, align 8
  %opaque = getelementptr inbounds %struct.BlockDriverState, ptr %0, i32 0, i32 7
  %1 = load ptr, ptr %opaque, align 8
  store ptr %1, ptr %s, align 8
  %2 = load i64, ptr %l2_entry.addr, align 8
  %and = and i64 %2, 4611686018427387904
  %tobool = icmp ne i64 %and, 0
  br i1 %tobool, label %if.then, label %if.else

if.then:                                          ; preds = %entry
  store i32 4, ptr %retval, align 4
  br label %return

if.else:                                          ; preds = %entry
  %3 = load i64, ptr %l2_entry.addr, align 8
  %and1 = and i64 %3, 1
  %tobool2 = icmp ne i64 %and1, 0
  br i1 %tobool2, label %land.lhs.true, label %if.else7

land.lhs.true:                                    ; preds = %if.else
  %4 = load ptr, ptr %s, align 8
  %call = call zeroext i1 @has_subclusters(ptr noundef %4)
  br i1 %call, label %if.else7, label %if.then3

if.then3:                                         ; preds = %land.lhs.true
  %5 = load i64, ptr %l2_entry.addr, align 8
  %and4 = and i64 %5, 72057594037927424
  %tobool5 = icmp ne i64 %and4, 0
  br i1 %tobool5, label %if.then6, label %if.end

if.then6:                                         ; preds = %if.then3
  store i32 2, ptr %retval, align 4
  br label %return

if.end:                                           ; preds = %if.then3
  store i32 1, ptr %retval, align 4
  br label %return

if.else7:                                         ; preds = %land.lhs.true, %if.else
  %6 = load i64, ptr %l2_entry.addr, align 8
  %and8 = and i64 %6, 72057594037927424
  %tobool9 = icmp ne i64 %and8, 0
  br i1 %tobool9, label %if.else17, label %if.then10

if.then10:                                        ; preds = %if.else7
  %7 = load ptr, ptr %bs.addr, align 8
  %call11 = call zeroext i1 @has_data_file(ptr noundef %7)
  br i1 %call11, label %land.lhs.true12, label %if.else16

land.lhs.true12:                                  ; preds = %if.then10
  %8 = load i64, ptr %l2_entry.addr, align 8
  %and13 = and i64 %8, -9223372036854775808
  %tobool14 = icmp ne i64 %and13, 0
  br i1 %tobool14, label %if.then15, label %if.else16

if.then15:                                        ; preds = %land.lhs.true12
  store i32 3, ptr %retval, align 4
  br label %return

if.else16:                                        ; preds = %land.lhs.true12, %if.then10
  store i32 0, ptr %retval, align 4
  br label %return

if.else17:                                        ; preds = %if.else7
  store i32 3, ptr %retval, align 4
  br label %return

return:                                           ; preds = %if.else17, %if.else16, %if.then15, %if.end, %if.then6, %if.then
  %9 = load i32, ptr %retval, align 4
  ret i32 %9
}

; Function Attrs: nounwind sspstrong uwtable
define internal i64 @be64_to_cpu(i64 noundef %v) #0 {
entry:
  %v.addr = alloca i64, align 8
  store i64 %v, ptr %v.addr, align 8
  %0 = load i64, ptr %v.addr, align 8
  %1 = call i64 @llvm.bswap.i64(i64 %0)
  ret i64 %1
}

; Function Attrs: nounwind sspstrong uwtable
define internal i64 @l2_entry_size(ptr noundef %s) #0 {
entry:
  %s.addr = alloca ptr, align 8
  store ptr %s, ptr %s.addr, align 8
  %0 = load ptr, ptr %s.addr, align 8
  %call = call zeroext i1 @has_subclusters(ptr noundef %0)
  %cond = select i1 %call, i64 16, i64 8
  ret i64 %cond
}

; Function Attrs: nounwind sspstrong uwtable
define internal zeroext i1 @cluster_needs_new_alloc(ptr noundef %bs, i64 noundef %l2_entry) #0 {
entry:
  %retval = alloca i1, align 1
  %bs.addr = alloca ptr, align 8
  %l2_entry.addr = alloca i64, align 8
  store ptr %bs, ptr %bs.addr, align 8
  store i64 %l2_entry, ptr %l2_entry.addr, align 8
  %0 = load ptr, ptr %bs.addr, align 8
  %1 = load i64, ptr %l2_entry.addr, align 8
  %call = call i32 @qcow2_get_cluster_type(ptr noundef %0, i64 noundef %1)
  switch i32 %call, label %sw.default [
    i32 3, label %sw.bb
    i32 2, label %sw.bb
    i32 0, label %sw.bb1
    i32 4, label %sw.bb1
    i32 1, label %sw.bb1
  ]

sw.bb:                                            ; preds = %entry, %entry
  %2 = load i64, ptr %l2_entry.addr, align 8
  %and = and i64 %2, -9223372036854775808
  %tobool = icmp ne i64 %and, 0
  br i1 %tobool, label %if.then, label %if.end

if.then:                                          ; preds = %sw.bb
  store i1 false, ptr %retval, align 1
  br label %return

if.end:                                           ; preds = %sw.bb
  br label %sw.bb1

sw.bb1:                                           ; preds = %if.end, %entry, %entry, %entry
  store i1 true, ptr %retval, align 1
  br label %return

sw.default:                                       ; preds = %entry
  call void @abort() #12
  unreachable

return:                                           ; preds = %sw.bb1, %if.then
  %3 = load i1, ptr %retval, align 1
  ret i1 %3
}

; Function Attrs: nounwind sspstrong uwtable
define internal i64 @get_l2_entry(ptr noundef %s, ptr noundef %l2_slice, i32 noundef %idx) #0 {
entry:
  %s.addr = alloca ptr, align 8
  %l2_slice.addr = alloca ptr, align 8
  %idx.addr = alloca i32, align 4
  store ptr %s, ptr %s.addr, align 8
  store ptr %l2_slice, ptr %l2_slice.addr, align 8
  store i32 %idx, ptr %idx.addr, align 4
  %0 = load ptr, ptr %s.addr, align 8
  %call = call i64 @l2_entry_size(ptr noundef %0)
  %div = udiv i64 %call, 8
  %1 = load i32, ptr %idx.addr, align 4
  %conv = sext i32 %1 to i64
  %mul = mul i64 %conv, %div
  %conv1 = trunc i64 %mul to i32
  store i32 %conv1, ptr %idx.addr, align 4
  %2 = load ptr, ptr %l2_slice.addr, align 8
  %3 = load i32, ptr %idx.addr, align 4
  %idxprom = sext i32 %3 to i64
  %arrayidx = getelementptr i64, ptr %2, i64 %idxprom
  %4 = load i64, ptr %arrayidx, align 8
  %call2 = call i64 @be64_to_cpu(i64 noundef %4)
  ret i64 %call2
}

; Function Attrs: nounwind sspstrong uwtable
define internal i32 @count_single_write_clusters(ptr noundef %bs, i32 noundef %nb_clusters, ptr noundef %l2_slice, i32 noundef %l2_index, i1 noundef zeroext %new_alloc) #0 {
entry:
  %bs.addr = alloca ptr, align 8
  %nb_clusters.addr = alloca i32, align 4
  %l2_slice.addr = alloca ptr, align 8
  %l2_index.addr = alloca i32, align 4
  %new_alloc.addr = alloca i8, align 1
  %s = alloca ptr, align 8
  %l2_entry = alloca i64, align 8
  %expected_offset = alloca i64, align 8
  %i = alloca i32, align 4
  store ptr %bs, ptr %bs.addr, align 8
  store i32 %nb_clusters, ptr %nb_clusters.addr, align 4
  store ptr %l2_slice, ptr %l2_slice.addr, align 8
  store i32 %l2_index, ptr %l2_index.addr, align 4
  %frombool = zext i1 %new_alloc to i8
  store i8 %frombool, ptr %new_alloc.addr, align 1
  %0 = load ptr, ptr %bs.addr, align 8
  %opaque = getelementptr inbounds %struct.BlockDriverState, ptr %0, i32 0, i32 7
  %1 = load ptr, ptr %opaque, align 8
  store ptr %1, ptr %s, align 8
  %2 = load ptr, ptr %s, align 8
  %3 = load ptr, ptr %l2_slice.addr, align 8
  %4 = load i32, ptr %l2_index.addr, align 4
  %call = call i64 @get_l2_entry(ptr noundef %2, ptr noundef %3, i32 noundef %4)
  store i64 %call, ptr %l2_entry, align 8
  %5 = load i64, ptr %l2_entry, align 8
  %and = and i64 %5, 72057594037927424
  store i64 %and, ptr %expected_offset, align 8
  store i32 0, ptr %i, align 4
  br label %for.cond

for.cond:                                         ; preds = %for.inc, %entry
  %6 = load i32, ptr %i, align 4
  %7 = load i32, ptr %nb_clusters.addr, align 4
  %cmp = icmp slt i32 %6, %7
  br i1 %cmp, label %for.body, label %for.end

for.body:                                         ; preds = %for.cond
  %8 = load ptr, ptr %s, align 8
  %9 = load ptr, ptr %l2_slice.addr, align 8
  %10 = load i32, ptr %l2_index.addr, align 4
  %11 = load i32, ptr %i, align 4
  %add = add i32 %10, %11
  %call1 = call i64 @get_l2_entry(ptr noundef %8, ptr noundef %9, i32 noundef %add)
  store i64 %call1, ptr %l2_entry, align 8
  %12 = load ptr, ptr %bs.addr, align 8
  %13 = load i64, ptr %l2_entry, align 8
  %call2 = call zeroext i1 @cluster_needs_new_alloc(ptr noundef %12, i64 noundef %13)
  %conv = zext i1 %call2 to i32
  %14 = load i8, ptr %new_alloc.addr, align 1
  %tobool = trunc i8 %14 to i1
  %conv3 = zext i1 %tobool to i32
  %cmp4 = icmp ne i32 %conv, %conv3
  br i1 %cmp4, label %if.then, label %if.end

if.then:                                          ; preds = %for.body
  br label %for.end

if.end:                                           ; preds = %for.body
  %15 = load i8, ptr %new_alloc.addr, align 1
  %tobool6 = trunc i8 %15 to i1
  br i1 %tobool6, label %if.end15, label %if.then7

if.then7:                                         ; preds = %if.end
  %16 = load i64, ptr %expected_offset, align 8
  %17 = load i64, ptr %l2_entry, align 8
  %and8 = and i64 %17, 72057594037927424
  %cmp9 = icmp ne i64 %16, %and8
  br i1 %cmp9, label %if.then11, label %if.end12

if.then11:                                        ; preds = %if.then7
  br label %for.end

if.end12:                                         ; preds = %if.then7
  %18 = load ptr, ptr %s, align 8
  %cluster_size = getelementptr inbounds %struct.BDRVQcow2State, ptr %18, i32 0, i32 1
  %19 = load i32, ptr %cluster_size, align 4
  %conv13 = sext i32 %19 to i64
  %20 = load i64, ptr %expected_offset, align 8
  %add14 = add i64 %20, %conv13
  store i64 %add14, ptr %expected_offset, align 8
  br label %if.end15

if.end15:                                         ; preds = %if.end12, %if.end
  br label %for.inc

for.inc:                                          ; preds = %if.end15
  %21 = load i32, ptr %i, align 4
  %inc = add i32 %21, 1
  store i32 %inc, ptr %i, align 4
  br label %for.cond, !llvm.loop !26

for.end:                                          ; preds = %if.then11, %if.then, %for.cond
  %22 = load i32, ptr %i, align 4
  %23 = load i32, ptr %nb_clusters.addr, align 4
  %cmp16 = icmp sle i32 %22, %23
  br i1 %cmp16, label %if.then18, label %if.else

if.then18:                                        ; preds = %for.end
  br label %if.end19

if.else:                                          ; preds = %for.end
  call void @__assert_fail(ptr noundef @.str.69, ptr noundef @.str.2, i32 noundef 1386, ptr noundef @__PRETTY_FUNCTION__.count_single_write_clusters) #12
  unreachable

if.end19:                                         ; preds = %if.then18
  %24 = load i32, ptr %i, align 4
  ret i32 %24
}