; Function Attrs: nounwind sspstrong uwtable
define internal fastcc i32 @count_single_write_clusters(ptr noundef readonly captures(none) %bs, i32 noundef %nb_clusters, ptr noundef readonly captures(none) %l2_slice, i32 noundef %l2_index, i1 noundef zeroext %new_alloc) unnamed_addr #0 {
entry:
  %opaque = getelementptr inbounds nuw i8, ptr %bs, i64 24
  %0 = load ptr, ptr %opaque, align 8
  %1 = getelementptr i8, ptr %0, i64 360
  %.val15 = load i64, ptr %1, align 8
  %.val15.fr = freeze i64 %.val15
  %2 = trunc i64 %.val15.fr to i32
  %3 = lshr i32 %2, 4
  %4 = and i32 %3, 1
  %conv1.i = shl i32 %l2_index, %4
  %idxprom.i = sext i32 %conv1.i to i64
  %arrayidx.i = getelementptr i64, ptr %l2_slice, i64 %idxprom.i
  %5 = load i64, ptr %arrayidx.i, align 8
  %6 = and i64 %5, 71776119061217024
  %and = tail call i64 @llvm.bswap.i64(i64 %6)
  %cmp20 = icmp sgt i32 %nb_clusters, 0
  br i1 %cmp20, label %for.body.lr.ph, label %for.end

for.body.lr.ph:                                   ; preds = %entry
  %and.i.i.i = and i64 %.val15.fr, 16
  %tobool.i.not.i.i = icmp eq i64 %and.i.i.i, 0
  %7 = getelementptr i8, ptr %bs, i64 16840
  %8 = getelementptr i8, ptr %0, i64 480
  %cluster_size = getelementptr inbounds nuw i8, ptr %0, i64 4
  br i1 %new_alloc, label %for.body.lr.ph.split.us.split, label %for.body.lr.ph.split

for.body.lr.ph.split.us.split:                    ; preds = %for.body.lr.ph
  br i1 %tobool.i.not.i.i, label %for.body.us.preheader, label %for.body.us.us

for.body.us.preheader:                            ; preds = %for.body.lr.ph.split.us.split
  %wide.trip.count83 = zext nneg i32 %nb_clusters to i64
  br label %for.body.us

for.body.us.us:                                   ; preds = %for.body.lr.ph.split.us.split, %for.inc.us.us
  %i.022.us.us = phi i32 [ %inc.us.us, %for.inc.us.us ], [ 0, %for.body.lr.ph.split.us.split ]
  %add.us.us = add i32 %i.022.us.us, %l2_index
  %conv1.i16.us.us = shl i32 %add.us.us, %4
  %idxprom.i17.us.us = sext i32 %conv1.i16.us.us to i64
  %arrayidx.i18.us.us = getelementptr i64, ptr %l2_slice, i64 %idxprom.i17.us.us
  %9 = load i64, ptr %arrayidx.i18.us.us, align 8
  %10 = tail call noundef i64 @llvm.bswap.i64(i64 %9)
  %and.i.i.us.us = and i64 %10, 4611686018427387904
  %tobool.not.i.i.us.us = icmp eq i64 %and.i.i.us.us, 0
  br i1 %tobool.not.i.i.us.us, label %if.else.i.i.us.us, label %for.inc.us.us

if.else.i.i.us.us:                                ; preds = %for.body.us.us
  %and8.i.i.us.us = and i64 %10, 72057594037927424
  %tobool9.not.i.i.us.us = icmp eq i64 %and8.i.i.us.us, 0
  br i1 %tobool9.not.i.i.us.us, label %if.then10.i.i.us.us, label %cluster_needs_new_alloc.exit.us.us

if.then10.i.i.us.us:                              ; preds = %if.else.i.i.us.us
  %bs.val6.i.i.us.us = load ptr, ptr %7, align 8
  %bs.val.val.i.i.us.us = load ptr, ptr %8, align 8
  %cmp.i.not.i.i.us.us = icmp eq ptr %bs.val.val.i.i.us.us, %bs.val6.i.i.us.us
  %tobool14.not.i.i.us.us = icmp sgt i64 %10, -1
  %or.cond.i.i.us.us = or i1 %tobool14.not.i.i.us.us, %cmp.i.not.i.i.us.us
  br label %cluster_needs_new_alloc.exit.us.us

cluster_needs_new_alloc.exit.us.us:               ; preds = %if.then10.i.i.us.us, %if.else.i.i.us.us
  %retval.0.i.i.us.us = phi i1 [ false, %if.else.i.i.us.us ], [ %or.cond.i.i.us.us, %if.then10.i.i.us.us ]
  %tobool.not.i.us.us = icmp sgt i64 %10, -1
  %or.cond.i.us.us = or i1 %tobool.not.i.us.us, %retval.0.i.i.us.us
  br i1 %or.cond.i.us.us, label %for.inc.us.us, label %for.end

for.inc.us.us:                                    ; preds = %cluster_needs_new_alloc.exit.us.us, %for.body.us.us
  %inc.us.us = add nuw nsw i32 %i.022.us.us, 1
  %exitcond79.not = icmp eq i32 %inc.us.us, %nb_clusters
  br i1 %exitcond79.not, label %if.end19, label %for.body.us.us, !llvm.loop !26

for.body.us:                                      ; preds = %for.body.us.preheader, %for.inc.us
  %indvars.iv80 = phi i64 [ 0, %for.body.us.preheader ], [ %indvars.iv.next81, %for.inc.us ]
  %11 = trunc nuw nsw i64 %indvars.iv80 to i32
  %add.us = add i32 %l2_index, %11
  %idxprom.i17.us = sext i32 %add.us to i64
  %arrayidx.i18.us = getelementptr i64, ptr %l2_slice, i64 %idxprom.i17.us
  %12 = load i64, ptr %arrayidx.i18.us, align 8
  %13 = tail call noundef i64 @llvm.bswap.i64(i64 %12)
  %and.i.i.us = and i64 %13, 4611686018427387904
  %tobool.not.i.i.us = icmp eq i64 %and.i.i.us, 0
  br i1 %tobool.not.i.i.us, label %if.else.i.i.us, label %for.inc.us

if.else.i.i.us:                                   ; preds = %for.body.us
  %14 = and i64 %13, 72057594037927425
  %brmerge99.not = icmp eq i64 %14, 0
  %15 = and i64 %13, 72057594037927425
  %tobool9.not.i.i.us.mux = icmp eq i64 %15, 1
  br i1 %brmerge99.not, label %if.then10.i.i.us, label %cluster_needs_new_alloc.exit.us

if.then10.i.i.us:                                 ; preds = %if.else.i.i.us
  %bs.val6.i.i.us = load ptr, ptr %7, align 8
  %bs.val.val.i.i.us = load ptr, ptr %8, align 8
  %cmp.i.not.i.i.us = icmp eq ptr %bs.val.val.i.i.us, %bs.val6.i.i.us
  %tobool14.not.i.i.us = icmp sgt i64 %13, -1
  %or.cond.i.i.us = or i1 %tobool14.not.i.i.us, %cmp.i.not.i.i.us
  br label %cluster_needs_new_alloc.exit.us

cluster_needs_new_alloc.exit.us:                  ; preds = %if.else.i.i.us, %if.then10.i.i.us
  %retval.0.i.i.us = phi i1 [ %or.cond.i.i.us, %if.then10.i.i.us ], [ %tobool9.not.i.i.us.mux, %if.else.i.i.us ]
  %tobool.not.i.us = icmp sgt i64 %13, -1
  %or.cond.i.us = or i1 %tobool.not.i.us, %retval.0.i.i.us
  br i1 %or.cond.i.us, label %for.inc.us, label %for.end

for.inc.us:                                       ; preds = %cluster_needs_new_alloc.exit.us, %for.body.us
  %indvars.iv.next81 = add nuw nsw i64 %indvars.iv80, 1
  %exitcond84.not = icmp eq i64 %indvars.iv.next81, %wide.trip.count83
  br i1 %exitcond84.not, label %if.end19, label %for.body.us, !llvm.loop !26

for.body.lr.ph.split:                             ; preds = %for.body.lr.ph
  br i1 %tobool.i.not.i.i, label %for.body.preheader, label %for.body.us28

for.body.preheader:                               ; preds = %for.body.lr.ph.split
  %wide.trip.count = zext nneg i32 %nb_clusters to i64
  br label %for.body

for.body.us28:                                    ; preds = %for.body.lr.ph.split, %if.end12.us
  %i.022.us29 = phi i32 [ %inc.us58, %if.end12.us ], [ 0, %for.body.lr.ph.split ]
  %expected_offset.021.us30 = phi i64 [ %add14.us, %if.end12.us ], [ %and, %for.body.lr.ph.split ]
  %add.us31 = add i32 %i.022.us29, %l2_index
  %conv1.i16.us32 = shl i32 %add.us31, %4
  %idxprom.i17.us33 = sext i32 %conv1.i16.us32 to i64
  %arrayidx.i18.us34 = getelementptr i64, ptr %l2_slice, i64 %idxprom.i17.us33
  %16 = load i64, ptr %arrayidx.i18.us34, align 8
  %17 = tail call noundef i64 @llvm.bswap.i64(i64 %16)
  %and.i.i.us35 = and i64 %17, 4611686018427387904
  %tobool.not.i.i.us36 = icmp eq i64 %and.i.i.us35, 0
  br i1 %tobool.not.i.i.us36, label %if.else.i.i.us38, label %for.end

if.else.i.i.us38:                                 ; preds = %for.body.us28
  %and8.i.i.us43 = and i64 %17, 72057594037927424
  %tobool9.not.i.i.us44 = icmp eq i64 %and8.i.i.us43, 0
  br i1 %tobool9.not.i.i.us44, label %if.then10.i.i.us45, label %cluster_needs_new_alloc.exit.us51

if.then10.i.i.us45:                               ; preds = %if.else.i.i.us38
  %bs.val6.i.i.us46 = load ptr, ptr %7, align 8
  %bs.val.val.i.i.us47 = load ptr, ptr %8, align 8
  %cmp.i.not.i.i.us48 = icmp eq ptr %bs.val.val.i.i.us47, %bs.val6.i.i.us46
  %tobool14.not.i.i.us49 = icmp sgt i64 %17, -1
  %or.cond.i.i.us50 = or i1 %tobool14.not.i.i.us49, %cmp.i.not.i.i.us48
  br label %cluster_needs_new_alloc.exit.us51

cluster_needs_new_alloc.exit.us51:                ; preds = %if.then10.i.i.us45, %if.else.i.i.us38
  %retval.0.i.i.us52 = phi i1 [ false, %if.else.i.i.us38 ], [ %or.cond.i.i.us50, %if.then10.i.i.us45 ]
  %tobool.not.i.us53 = icmp sgt i64 %17, -1
  %or.cond.i.us54 = or i1 %tobool.not.i.us53, %retval.0.i.i.us52
  %cmp9.not.us = icmp ne i64 %expected_offset.021.us30, %and8.i.i.us43
  %or.cond.not = select i1 %or.cond.i.us54, i1 true, i1 %cmp9.not.us
  br i1 %or.cond.not, label %for.end, label %if.end12.us

if.end12.us:                                      ; preds = %cluster_needs_new_alloc.exit.us51
  %18 = load i32, ptr %cluster_size, align 4
  %conv13.us = sext i32 %18 to i64
  %add14.us = add nsw i64 %expected_offset.021.us30, %conv13.us
  %inc.us58 = add nuw nsw i32 %i.022.us29, 1
  %exitcond.not = icmp eq i32 %inc.us58, %nb_clusters
  br i1 %exitcond.not, label %if.end19, label %for.body.us28, !llvm.loop !26

for.body:                                         ; preds = %for.body.preheader, %if.end12
  %indvars.iv = phi i64 [ 0, %for.body.preheader ], [ %indvars.iv.next, %if.end12 ]
  %expected_offset.021 = phi i64 [ %and, %for.body.preheader ], [ %add14, %if.end12 ]
  %19 = trunc nuw nsw i64 %indvars.iv to i32
  %add = add i32 %l2_index, %19
  %idxprom.i17 = sext i32 %add to i64
  %arrayidx.i18 = getelementptr i64, ptr %l2_slice, i64 %idxprom.i17
  %20 = load i64, ptr %arrayidx.i18, align 8
  %21 = tail call noundef i64 @llvm.bswap.i64(i64 %20)
  %and.i.i = and i64 %21, 4611686018427387904
  %tobool.not.i.i = icmp eq i64 %and.i.i, 0
  br i1 %tobool.not.i.i, label %if.else.i.i, label %for.end

if.else.i.i:                                      ; preds = %for.body
  %and8.i.i = and i64 %21, 72057594037927424
  %22 = and i64 %21, 72057594037927425
  %brmerge.not = icmp eq i64 %22, 0
  %23 = and i64 %21, 72057594037927425
  %tobool9.not.i.i.mux = icmp eq i64 %23, 1
  br i1 %brmerge.not, label %if.then10.i.i, label %cluster_needs_new_alloc.exit

if.then10.i.i:                                    ; preds = %if.else.i.i
  %bs.val6.i.i = load ptr, ptr %7, align 8
  %bs.val.val.i.i = load ptr, ptr %8, align 8
  %cmp.i.not.i.i = icmp eq ptr %bs.val.val.i.i, %bs.val6.i.i
  %tobool14.not.i.i = icmp sgt i64 %21, -1
  %or.cond.i.i = or i1 %tobool14.not.i.i, %cmp.i.not.i.i
  br label %cluster_needs_new_alloc.exit

cluster_needs_new_alloc.exit:                     ; preds = %if.else.i.i, %if.then10.i.i
  %and8.pre-phi = phi i64 [ 0, %if.then10.i.i ], [ %and8.i.i, %if.else.i.i ]
  %retval.0.i.i = phi i1 [ %or.cond.i.i, %if.then10.i.i ], [ %tobool9.not.i.i.mux, %if.else.i.i ]
  %tobool.not.i = icmp sgt i64 %21, -1
  %or.cond.i = or i1 %tobool.not.i, %retval.0.i.i
  %cmp9.not = icmp ne i64 %expected_offset.021, %and8.pre-phi
  %or.cond70.not = select i1 %or.cond.i, i1 true, i1 %cmp9.not
  br i1 %or.cond70.not, label %for.end, label %if.end12

if.end12:                                         ; preds = %cluster_needs_new_alloc.exit
  %24 = load i32, ptr %cluster_size, align 4
  %conv13 = sext i32 %24 to i64
  %add14 = add nsw i64 %expected_offset.021, %conv13
  %indvars.iv.next = add nuw nsw i64 %indvars.iv, 1
  %exitcond78.not = icmp eq i64 %indvars.iv.next, %wide.trip.count
  br i1 %exitcond78.not, label %if.end19, label %for.body, !llvm.loop !26

for.end:                                          ; preds = %cluster_needs_new_alloc.exit.us51, %for.body.us28, %cluster_needs_new_alloc.exit, %for.body, %cluster_needs_new_alloc.exit.us.us, %cluster_needs_new_alloc.exit.us, %entry
  %i.0.lcssa = phi i32 [ 0, %entry ], [ %11, %cluster_needs_new_alloc.exit.us ], [ %i.022.us.us, %cluster_needs_new_alloc.exit.us.us ], [ %19, %for.body ], [ %19, %cluster_needs_new_alloc.exit ], [ %i.022.us29, %for.body.us28 ], [ %i.022.us29, %cluster_needs_new_alloc.exit.us51 ]
  %cmp16.not = icmp sgt i32 %i.0.lcssa, %nb_clusters
  br i1 %cmp16.not, label %if.else, label %if.end19

if.else:                                          ; preds = %for.end
  tail call void @__assert_fail(ptr noundef nonnull @.str.69, ptr noundef nonnull @.str.2, i32 noundef 1386, ptr noundef nonnull @__PRETTY_FUNCTION__.count_single_write_clusters) #15
  unreachable

if.end19:                                         ; preds = %if.end12.us, %if.end12, %for.inc.us.us, %for.inc.us, %for.end
  %i.0.lcssa87 = phi i32 [ %i.0.lcssa, %for.end ], [ %nb_clusters, %for.inc.us ], [ %nb_clusters, %for.inc.us.us ], [ %nb_clusters, %if.end12 ], [ %nb_clusters, %if.end12.us ]
  ret i32 %i.0.lcssa87
}